target datalayout = "e-m:e-p270:32:32-p271:32:32-p272:64:64-i64:64-i128:128-f80:128-n8:16:32:64-S128"
target triple = "x86_64-pc-linux-gnu"

%struct.PLwdatum = type { ptr, ptr, i8, ptr }
%struct.PLpgSQL_datum = type { i32, i32 }
%struct.PLpgSQL_row = type { i32, i32, ptr, i32, i8, i8, ptr, ptr, i32, ptr, ptr }

@.str.2 = private unnamed_addr constant [11 x i8] c"plpgsql-18\00", align 1
@.str.4 = private unnamed_addr constant [10 x i8] c"pl_gram.y\00", align 1
@.str.8 = private unnamed_addr constant [14 x i8] c"(unnamed row)\00", align 1
@.str.32 = private unnamed_addr constant [30 x i8] c"\22%s\22 is not a scalar variable\00", align 1
@.str.57 = private unnamed_addr constant [13 x i8] c"syntax error\00", align 1
@.str.119 = private unnamed_addr constant [34 x i8] c"too many INTO variables specified\00", align 1
@__func__.read_into_scalar_list = private unnamed_addr constant [22 x i8] c"read_into_scalar_list\00", align 1

; Function Attrs: nounwind uwtable
define internal void @current_token_is_not_variable(i32 noundef %0, ptr noundef %1, ptr noundef %2, ptr noundef %3) #0 {
  %5 = alloca i32, align 4
  %6 = alloca ptr, align 8
  %7 = alloca ptr, align 8
  %8 = alloca ptr, align 8
  store i32 %0, ptr %5, align 4
  store ptr %1, ptr %6, align 8
  store ptr %2, ptr %7, align 8
  store ptr %3, ptr %8, align 8
  %9 = load i32, ptr %5, align 4
  %10 = icmp eq i32 %9, 275
  br i1 %10, label %11, label %16

11:                                               ; preds = %4
  %12 = load ptr, ptr %6, align 8
  %13 = load ptr, ptr %7, align 8
  %14 = load i32, ptr %13, align 4
  %15 = load ptr, ptr %8, align 8
  call void @word_is_not_variable(ptr noundef %12, i32 noundef %14, ptr noundef %15)
  br label %28

16:                                               ; preds = %4
  %17 = load i32, ptr %5, align 4
  %18 = icmp eq i32 %17, 276
  br i1 %18, label %19, label %24

19:                                               ; preds = %16
  %20 = load ptr, ptr %6, align 8
  %21 = load ptr, ptr %7, align 8
  %22 = load i32, ptr %21, align 4
  %23 = load ptr, ptr %8, align 8
  call void @cword_is_not_variable(ptr noundef %20, i32 noundef %22, ptr noundef %23)
  br label %27

24:                                               ; preds = %16
  %25 = load ptr, ptr %7, align 8
  %26 = load ptr, ptr %8, align 8
  call void @plpgsql_yyerror(ptr noundef %25, ptr noundef null, ptr noundef %26, ptr noundef @.str.57) #13
  unreachable

27:                                               ; preds = %19
  br label %28

28:                                               ; preds = %27, %11
  ret void
}

; Function Attrs: nounwind uwtable
define internal ptr @read_into_scalar_list(ptr noundef %0, ptr noundef %1, i32 noundef %2, ptr noundef %3, ptr noundef %4, ptr noundef %5) #0 {
  %7 = alloca ptr, align 8
  %8 = alloca ptr, align 8
  %9 = alloca i32, align 4
  %10 = alloca ptr, align 8
  %11 = alloca ptr, align 8
  %12 = alloca ptr, align 8
  %13 = alloca i32, align 4
  %14 = alloca [1024 x ptr], align 16
  %15 = alloca [1024 x i32], align 16
  %16 = alloca ptr, align 8
  %17 = alloca i32, align 4
  store ptr %0, ptr %7, align 8
  store ptr %1, ptr %8, align 8
  store i32 %2, ptr %9, align 4
  store ptr %3, ptr %10, align 8
  store ptr %4, ptr %11, align 8
  store ptr %5, ptr %12, align 8
  call void @llvm.lifetime.start.p0(i64 4, ptr %13) #10
  call void @llvm.lifetime.start.p0(i64 8192, ptr %14) #10
  call void @llvm.lifetime.start.p0(i64 4096, ptr %15) #10
  call void @llvm.lifetime.start.p0(i64 8, ptr %16) #10
  call void @llvm.lifetime.start.p0(i64 4, ptr %17) #10
  %18 = load ptr, ptr %8, align 8
  %19 = load i32, ptr %9, align 4
  %20 = load ptr, ptr %12, align 8
  call void @check_assignable(ptr noundef %18, i32 noundef %19, ptr noundef %20)
  %21 = load ptr, ptr %7, align 8
  %22 = getelementptr inbounds [1024 x ptr], ptr %14, i64 0, i64 0
  store ptr %21, ptr %22, align 16
  %23 = load ptr, ptr %8, align 8
  %24 = getelementptr inbounds nuw %struct.PLpgSQL_datum, ptr %23, i32 0, i32 1
  %25 = load i32, ptr %24, align 4
  %26 = getelementptr inbounds [1024 x i32], ptr %15, i64 0, i64 0
  store i32 %25, ptr %26, align 16
  store i32 1, ptr %13, align 4
  br label %27

27:                                               ; preds = %116, %6
  %28 = load ptr, ptr %10, align 8
  %29 = load ptr, ptr %11, align 8
  %30 = load ptr, ptr %12, align 8
  %31 = call i32 @plpgsql_yylex(ptr noundef %28, ptr noundef %29, ptr noundef %30)
  store i32 %31, ptr %17, align 4
  %32 = icmp eq i32 %31, 44
  br i1 %32, label %33, label %117

33:                                               ; preds = %27
  %34 = load i32, ptr %13, align 4
  %35 = icmp sge i32 %34, 1024
  br i1 %35, label %36, label %52

36:                                               ; preds = %33
  br label %37

37:                                               ; preds = %36
  br i1 true, label %38, label %40

38:                                               ; preds = %37
  %39 = call zeroext i1 @errstart_cold(i32 noundef 21, ptr noundef @.str.2) #12
  br i1 %39, label %42, label %49

40:                                               ; preds = %37
  %41 = call zeroext i1 @errstart(i32 noundef 21, ptr noundef @.str.2)
  br i1 %41, label %42, label %49

42:                                               ; preds = %40, %38
  %43 = call i32 @errcode(i32 noundef 261)
  %44 = call i32 (ptr, ...) @errmsg(ptr noundef @.str.119)
  %45 = load ptr, ptr %11, align 8
  %46 = load i32, ptr %45, align 4
  %47 = load ptr, ptr %12, align 8
  %48 = call i32 @plpgsql_scanner_errposition(i32 noundef %46, ptr noundef %47)
  call void @errfinish(ptr noundef @.str.4, i32 noundef 3674, ptr noundef @__func__.read_into_scalar_list)
  br label %49

49:                                               ; preds = %42, %40, %38
  unreachable

50:                                               ; No predecessors!
  br label %51

51:                                               ; preds = %50
  br label %52

52:                                               ; preds = %51, %33
  %53 = load ptr, ptr %10, align 8
  %54 = load ptr, ptr %11, align 8
  %55 = load ptr, ptr %12, align 8
  %56 = call i32 @plpgsql_yylex(ptr noundef %53, ptr noundef %54, ptr noundef %55)
  store i32 %56, ptr %17, align 4
  %57 = load i32, ptr %17, align 4
  switch i32 %57, label %111 [
    i32 277, label %58
  ]

58:                                               ; preds = %52
  %59 = load ptr, ptr %10, align 8
  %60 = getelementptr inbounds nuw %struct.PLwdatum, ptr %59, i32 0, i32 0
  %61 = load ptr, ptr %60, align 8
  %62 = load ptr, ptr %11, align 8
  %63 = load i32, ptr %62, align 4
  %64 = load ptr, ptr %12, align 8
  call void @check_assignable(ptr noundef %61, i32 noundef %63, ptr noundef %64)
  %65 = load ptr, ptr %10, align 8
  %66 = getelementptr inbounds nuw %struct.PLwdatum, ptr %65, i32 0, i32 0
  %67 = load ptr, ptr %66, align 8
  %68 = getelementptr inbounds nuw %struct.PLpgSQL_datum, ptr %67, i32 0, i32 0
  %69 = load i32, ptr %68, align 4
  %70 = icmp eq i32 %69, 1
  br i1 %70, label %78, label %71

71:                                               ; preds = %58
  %72 = load ptr, ptr %10, align 8
  %73 = getelementptr inbounds nuw %struct.PLwdatum, ptr %72, i32 0, i32 0
  %74 = load ptr, ptr %73, align 8
  %75 = getelementptr inbounds nuw %struct.PLpgSQL_datum, ptr %74, i32 0, i32 0
  %76 = load i32, ptr %75, align 4
  %77 = icmp eq i32 %76, 2
  br i1 %77, label %78, label %96

78:                                               ; preds = %71, %58
  br label %79

79:                                               ; preds = %78
  br i1 true, label %80, label %82

80:                                               ; preds = %79
  %81 = call zeroext i1 @errstart_cold(i32 noundef 21, ptr noundef @.str.2) #12
  br i1 %81, label %84, label %93

82:                                               ; preds = %79
  %83 = call zeroext i1 @errstart(i32 noundef 21, ptr noundef @.str.2)
  br i1 %83, label %84, label %93

84:                                               ; preds = %82, %80
  %85 = call i32 @errcode(i32 noundef 16801924)
  %86 = load ptr, ptr %10, align 8
  %87 = call ptr @NameOfDatum(ptr noundef %86)
  %88 = call i32 (ptr, ...) @errmsg(ptr noundef @.str.32, ptr noundef %87)
  %89 = load ptr, ptr %11, align 8
  %90 = load i32, ptr %89, align 4
  %91 = load ptr, ptr %12, align 8
  %92 = call i32 @plpgsql_scanner_errposition(i32 noundef %90, ptr noundef %91)
  call void @errfinish(ptr noundef @.str.4, i32 noundef 3687, ptr noundef @__func__.read_into_scalar_list)
  br label %93

93:                                               ; preds = %84, %82, %80
  unreachable

94:                                               ; No predecessors!
  br label %95

95:                                               ; preds = %94
  br label %96

96:                                               ; preds = %95, %71
  %97 = load ptr, ptr %10, align 8
  %98 = call ptr @NameOfDatum(ptr noundef %97)
  %99 = load i32, ptr %13, align 4
  %100 = sext i32 %99 to i64
  %101 = getelementptr inbounds [1024 x ptr], ptr %14, i64 0, i64 %100
  store ptr %98, ptr %101, align 8
  %102 = load ptr, ptr %10, align 8
  %103 = getelementptr inbounds nuw %struct.PLwdatum, ptr %102, i32 0, i32 0
  %104 = load ptr, ptr %103, align 8
  %105 = getelementptr inbounds nuw %struct.PLpgSQL_datum, ptr %104, i32 0, i32 1
  %106 = load i32, ptr %105, align 4
  %107 = load i32, ptr %13, align 4
  %108 = add i32 %107, 1
  store i32 %108, ptr %13, align 4
  %109 = sext i32 %107 to i64
  %110 = getelementptr inbounds [1024 x i32], ptr %15, i64 0, i64 %109
  store i32 %106, ptr %110, align 4
  br label %116

111:                                              ; preds = %52
  %112 = load i32, ptr %17, align 4
  %113 = load ptr, ptr %10, align 8
  %114 = load ptr, ptr %11, align 8
  %115 = load ptr, ptr %12, align 8
  call void @current_token_is_not_variable(i32 noundef %112, ptr noundef %113, ptr noundef %114, ptr noundef %115)
  br label %116

116:                                              ; preds = %111, %96
  br label %27, !llvm.loop !20

117:                                              ; preds = %27
  %118 = load i32, ptr %17, align 4
  %119 = load ptr, ptr %10, align 8
  %120 = load ptr, ptr %11, align 8
  %121 = load ptr, ptr %12, align 8
  call void @plpgsql_push_back_token(i32 noundef %118, ptr noundef %119, ptr noundef %120, ptr noundef %121)
  %122 = call ptr @palloc0(i64 noundef 64)
  store ptr %122, ptr %16, align 8
  %123 = load ptr, ptr %16, align 8
  %124 = getelementptr inbounds nuw %struct.PLpgSQL_row, ptr %123, i32 0, i32 0
  store i32 1, ptr %124, align 8
  %125 = load ptr, ptr %16, align 8
  %126 = getelementptr inbounds nuw %struct.PLpgSQL_row, ptr %125, i32 0, i32 2
  store ptr @.str.8, ptr %126, align 8
  %127 = load i32, ptr %9, align 4
  %128 = load ptr, ptr %12, align 8
  %129 = call i32 @plpgsql_location_to_lineno(i32 noundef %127, ptr noundef %128)
  %130 = load ptr, ptr %16, align 8
  %131 = getelementptr inbounds nuw %struct.PLpgSQL_row, ptr %130, i32 0, i32 3
  store i32 %129, ptr %131, align 8
  %132 = load ptr, ptr %16, align 8
  %133 = getelementptr inbounds nuw %struct.PLpgSQL_row, ptr %132, i32 0, i32 7
  store ptr null, ptr %133, align 8
  %134 = load i32, ptr %13, align 4
  %135 = load ptr, ptr %16, align 8
  %136 = getelementptr inbounds nuw %struct.PLpgSQL_row, ptr %135, i32 0, i32 8
  store i32 %134, ptr %136, align 8
  %137 = load i32, ptr %13, align 4
  %138 = sext i32 %137 to i64
  %139 = mul i64 8, %138
  %140 = call ptr @palloc(i64 noundef %139)
  %141 = load ptr, ptr %16, align 8
  %142 = getelementptr inbounds nuw %struct.PLpgSQL_row, ptr %141, i32 0, i32 9
  store ptr %140, ptr %142, align 8
  %143 = load i32, ptr %13, align 4
  %144 = sext i32 %143 to i64
  %145 = mul i64 4, %144
  %146 = call ptr @palloc(i64 noundef %145)
  %147 = load ptr, ptr %16, align 8
  %148 = getelementptr inbounds nuw %struct.PLpgSQL_row, ptr %147, i32 0, i32 10
  store ptr %146, ptr %148, align 8
  br label %149

149:                                              ; preds = %153, %117
  %150 = load i32, ptr %13, align 4
  %151 = add i32 %150, -1
  store i32 %151, ptr %13, align 4
  %152 = icmp sge i32 %151, 0
  br i1 %152, label %153, label %174

153:                                              ; preds = %149
  %154 = load i32, ptr %13, align 4
  %155 = sext i32 %154 to i64
  %156 = getelementptr inbounds [1024 x ptr], ptr %14, i64 0, i64 %155
  %157 = load ptr, ptr %156, align 8
  %158 = load ptr, ptr %16, align 8
  %159 = getelementptr inbounds nuw %struct.PLpgSQL_row, ptr %158, i32 0, i32 9
  %160 = load ptr, ptr %159, align 8
  %161 = load i32, ptr %13, align 4
  %162 = sext i32 %161 to i64
  %163 = getelementptr inbounds ptr, ptr %160, i64 %162
  store ptr %157, ptr %163, align 8
  %164 = load i32, ptr %13, align 4
  %165 = sext i32 %164 to i64
  %166 = getelementptr inbounds [1024 x i32], ptr %15, i64 0, i64 %165
  %167 = load i32, ptr %166, align 4
  %168 = load ptr, ptr %16, align 8
  %169 = getelementptr inbounds nuw %struct.PLpgSQL_row, ptr %168, i32 0, i32 10
  %170 = load ptr, ptr %169, align 8
  %171 = load i32, ptr %13, align 4
  %172 = sext i32 %171 to i64
  %173 = getelementptr inbounds i32, ptr %170, i64 %172
  store i32 %167, ptr %173, align 4
  br label %149, !llvm.loop !21

174:                                              ; preds = %149
  %175 = load ptr, ptr %16, align 8
  call void @plpgsql_adddatum(ptr noundef %175)
  %176 = load ptr, ptr %16, align 8
  call void @llvm.lifetime.end.p0(i64 4, ptr %17) #10
  call void @llvm.lifetime.end.p0(i64 8, ptr %16) #10
  call void @llvm.lifetime.end.p0(i64 4096, ptr %15) #10
  call void @llvm.lifetime.end.p0(i64 8192, ptr %14) #10
  call void @llvm.lifetime.end.p0(i64 4, ptr %13) #10
  ret ptr %176
}