; Function Attrs: nounwind uwtable
define internal fastcc noundef ptr @read_into_scalar_list(ptr noundef %0, ptr noundef readonly captures(none) %1, i32 noundef %2, ptr noundef nonnull %3, ptr noundef nonnull %4, ptr noundef %5) unnamed_addr #0 {
  %7 = alloca [1024 x ptr], align 16
  %8 = alloca [1024 x i32], align 16
  call void @llvm.lifetime.start.p0(i64 8192, ptr nonnull %7) #12
  call void @llvm.lifetime.start.p0(i64 4096, ptr nonnull %8) #12
  tail call fastcc void @check_assignable(ptr noundef %1, i32 noundef %2, ptr noundef %5)
  store ptr %0, ptr %7, align 16
  %9 = getelementptr inbounds nuw i8, ptr %1, i64 4
  %10 = load i32, ptr %9, align 4
  store i32 %10, ptr %8, align 16
  %11 = tail call i32 @plpgsql_yylex(ptr noundef nonnull %3, ptr noundef nonnull %4, ptr noundef %5) #12
  %12 = icmp eq i32 %11, 44
  br i1 %12, label %.lr.ph, label %.lr.ph72.preheader

.lr.ph:                                           ; preds = %6
  %13 = getelementptr inbounds nuw i8, ptr %3, i64 8
  %14 = getelementptr inbounds nuw i8, ptr %3, i64 24
  br label %15

15:                                               ; preds = %.lr.ph, %NameOfDatum.exit
  %indvars.iv = phi i64 [ 1, %.lr.ph ], [ %indvars.iv.next, %NameOfDatum.exit ]
  %exitcond = icmp eq i64 %indvars.iv, 1024
  br i1 %exitcond, label %16, label %22

16:                                               ; preds = %15
  %17 = tail call zeroext i1 @errstart_cold(i32 noundef 21, ptr noundef nonnull @.str.2) #14
  tail call void @llvm.assume(i1 %17)
  %18 = tail call i32 @errcode(i32 noundef 261) #12
  %19 = tail call i32 (ptr, ...) @errmsg(ptr noundef nonnull @.str.119) #12
  %20 = load i32, ptr %4, align 4
  %21 = tail call i32 @plpgsql_scanner_errposition(i32 noundef %20, ptr noundef %5) #12
  tail call void @errfinish(ptr noundef nonnull @.str.4, i32 noundef 3674, ptr noundef nonnull @__func__.read_into_scalar_list) #12
  unreachable

22:                                               ; preds = %15
  %23 = tail call i32 @plpgsql_yylex(ptr noundef nonnull %3, ptr noundef nonnull %4, ptr noundef %5) #12
  switch i32 %23, label %52 [
    i32 277, label %24
    i32 275, label %48
    i32 276, label %50
  ]

24:                                               ; preds = %22
  %25 = load ptr, ptr %3, align 8
  %26 = load i32, ptr %4, align 4
  tail call fastcc void @check_assignable(ptr noundef %25, i32 noundef %26, ptr noundef %5)
  %27 = load ptr, ptr %3, align 8
  %28 = load i32, ptr %27, align 4
  %.off = add i32 %28, -1
  %switch = icmp ult i32 %.off, 2
  br i1 %switch, label %29, label %36

29:                                               ; preds = %24
  %30 = tail call zeroext i1 @errstart_cold(i32 noundef 21, ptr noundef nonnull @.str.2) #14
  tail call void @llvm.assume(i1 %30)
  %31 = tail call i32 @errcode(i32 noundef 16801924) #12
  %32 = tail call fastcc ptr @NameOfDatum(ptr noundef %3)
  %33 = tail call i32 (ptr, ...) @errmsg(ptr noundef nonnull @.str.32, ptr noundef %32) #12
  %34 = load i32, ptr %4, align 4
  %35 = tail call i32 @plpgsql_scanner_errposition(i32 noundef %34, ptr noundef %5) #12
  tail call void @errfinish(ptr noundef nonnull @.str.4, i32 noundef 3687, ptr noundef nonnull @__func__.read_into_scalar_list) #12
  unreachable

36:                                               ; preds = %24
  %37 = load ptr, ptr %13, align 8
  %.not.i = icmp eq ptr %37, null
  br i1 %.not.i, label %38, label %NameOfDatum.exit

38:                                               ; preds = %36
  %39 = load ptr, ptr %14, align 8
  %40 = tail call ptr @NameListToString(ptr noundef %39) #12
  %.pre = load ptr, ptr %3, align 8
  br label %NameOfDatum.exit

NameOfDatum.exit:                                 ; preds = %36, %38
  %41 = phi ptr [ %.pre, %38 ], [ %27, %36 ]
  %.0.i = phi ptr [ %40, %38 ], [ %37, %36 ]
  %42 = getelementptr inbounds nuw [1024 x ptr], ptr %7, i64 0, i64 %indvars.iv
  store ptr %.0.i, ptr %42, align 8
  %43 = getelementptr inbounds nuw i8, ptr %41, i64 4
  %44 = load i32, ptr %43, align 4
  %indvars.iv.next = add nuw nsw i64 %indvars.iv, 1
  %45 = getelementptr inbounds nuw [1024 x i32], ptr %8, i64 0, i64 %indvars.iv
  store i32 %44, ptr %45, align 4
  %46 = tail call i32 @plpgsql_yylex(ptr noundef nonnull %3, ptr noundef nonnull %4, ptr noundef %5) #12
  %47 = icmp eq i32 %46, 44
  br i1 %47, label %15, label %._crit_edge.loopexit, !llvm.loop !16

48:                                               ; preds = %22
  %49 = load i32, ptr %4, align 4
  tail call fastcc void @word_is_not_variable(ptr noundef nonnull readonly %3, i32 noundef %49, ptr noundef %5)
  unreachable

50:                                               ; preds = %22
  %51 = load i32, ptr %4, align 4
  tail call fastcc void @cword_is_not_variable(ptr noundef nonnull readonly %3, i32 noundef %51, ptr noundef %5)
  unreachable

52:                                               ; preds = %22
  tail call void @plpgsql_yyerror(ptr noundef nonnull %4, ptr noundef null, ptr noundef %5, ptr noundef nonnull @.str.57) #15
  unreachable

._crit_edge.loopexit:                             ; preds = %NameOfDatum.exit
  %53 = trunc nuw nsw i64 %indvars.iv.next to i32
  br label %.lr.ph72.preheader

.lr.ph72.preheader:                               ; preds = %6, %._crit_edge.loopexit
  %.0.lcssa = phi i32 [ 1, %6 ], [ %53, %._crit_edge.loopexit ]
  %.lcssa = phi i32 [ %11, %6 ], [ %46, %._crit_edge.loopexit ]
  tail call void @plpgsql_push_back_token(i32 noundef %.lcssa, ptr noundef nonnull %3, ptr noundef nonnull %4, ptr noundef %5) #12
  %54 = tail call ptr @palloc0(i64 noundef 64) #12
  store i32 1, ptr %54, align 8
  %55 = getelementptr inbounds nuw i8, ptr %54, i64 8
  store ptr @.str.8, ptr %55, align 8
  %56 = tail call i32 @plpgsql_location_to_lineno(i32 noundef %2, ptr noundef %5) #12
  %57 = getelementptr inbounds nuw i8, ptr %54, i64 16
  store i32 %56, ptr %57, align 8
  %58 = getelementptr inbounds nuw i8, ptr %54, i64 32
  store ptr null, ptr %58, align 8
  %59 = getelementptr inbounds nuw i8, ptr %54, i64 40
  store i32 %.0.lcssa, ptr %59, align 8
  %60 = zext nneg i32 %.0.lcssa to i64
  %61 = shl nuw nsw i64 %60, 3
  %62 = tail call ptr @palloc(i64 noundef %61) #12
  %63 = getelementptr inbounds nuw i8, ptr %54, i64 48
  store ptr %62, ptr %63, align 8
  %64 = shl nuw nsw i64 %60, 2
  %65 = tail call ptr @palloc(i64 noundef %64) #12
  %66 = getelementptr inbounds nuw i8, ptr %54, i64 56
  store ptr %65, ptr %66, align 8
  %67 = add nsw i32 %.0.lcssa, -1
  %68 = zext nneg i32 %67 to i64
  br label %.lr.ph72

.lr.ph72:                                         ; preds = %.lr.ph72.preheader, %.lr.ph72
  %indvars.iv77 = phi i64 [ %68, %.lr.ph72.preheader ], [ %indvars.iv.next78, %.lr.ph72 ]
  %69 = getelementptr inbounds nuw [1024 x ptr], ptr %7, i64 0, i64 %indvars.iv77
  %70 = load ptr, ptr %69, align 8
  %71 = load ptr, ptr %63, align 8
  %72 = getelementptr inbounds nuw ptr, ptr %71, i64 %indvars.iv77
  store ptr %70, ptr %72, align 8
  %73 = getelementptr inbounds nuw [1024 x i32], ptr %8, i64 0, i64 %indvars.iv77
  %74 = load i32, ptr %73, align 4
  %75 = load ptr, ptr %66, align 8
  %76 = getelementptr inbounds nuw i32, ptr %75, i64 %indvars.iv77
  store i32 %74, ptr %76, align 4
  %indvars.iv.next78 = add nsw i64 %indvars.iv77, -1
  %.not = icmp eq i64 %indvars.iv77, 0
  br i1 %.not, label %._crit_edge73, label %.lr.ph72, !llvm.loop !17

._crit_edge73:                                    ; preds = %.lr.ph72
  tail call void @plpgsql_adddatum(ptr noundef nonnull %54) #12
  call void @llvm.lifetime.end.p0(i64 4096, ptr nonnull %8) #12
  call void @llvm.lifetime.end.p0(i64 8192, ptr nonnull %7) #12
  ret ptr %54
}